target datalayout = "e-m:e-p270:32:32-p271:32:32-p272:64:64-i64:64-i128:128-f80:128-n8:16:32:64-S128"
target triple = "x86_64-unknown-linux-gnu"

%"class.hermes::vm::StringView" = type { %union.anon, i32, i32 }
%union.anon = type { ptr }
%"class.hermes::vm::StringView::const_iterator" = type { ptr, ptr }
%class.anon.75 = type { ptr, ptr, ptr }

; Function Attrs: mustprogress nounwind uwtable
define linkonce_odr hidden { ptr, i64 } @_ZNK6hermes2vm10StringView5sliceEjj(ptr noundef nonnull align 8 dereferenceable(16) %this, i32 noundef %start, i32 noundef %length) #0 comdat align 2 {
entry:
  %retval = alloca %"class.hermes::vm::StringView", align 8
  %this.addr = alloca ptr, align 8
  %start.addr = alloca i32, align 4
  %length.addr = alloca i32, align 4
  store ptr %this, ptr %this.addr, align 8
  store i32 %start, ptr %start.addr, align 4
  store i32 %length, ptr %length.addr, align 4
  %this1 = load ptr, ptr %this.addr, align 8
  call void @llvm.memcpy.p0.p0.i64(ptr align 8 %retval, ptr align 8 %this1, i64 16, i1 false)
  %0 = load i32, ptr %start.addr, align 4
  %startIndex_ = getelementptr inbounds %"class.hermes::vm::StringView", ptr %retval, i32 0, i32 1
  %bf.load = load i32, ptr %startIndex_, align 8
  %bf.clear = and i32 %bf.load, 1073741823
  %add = add i32 %bf.clear, %0
  %bf.load2 = load i32, ptr %startIndex_, align 8
  %bf.value = and i32 %add, 1073741823
  %bf.clear3 = and i32 %bf.load2, -1073741824
  %bf.set = or i32 %bf.clear3, %bf.value
  store i32 %bf.set, ptr %startIndex_, align 8
  %1 = load i32, ptr %length.addr, align 4
  %length_ = getelementptr inbounds %"class.hermes::vm::StringView", ptr %retval, i32 0, i32 2
  store i32 %1, ptr %length_, align 4
  %2 = load { ptr, i64 }, ptr %retval, align 8
  ret { ptr, i64 } %2
}

; Function Attrs: mustprogress nounwind uwtable
define linkonce_odr hidden noundef i64 @_ZNK6hermes2vm10StringView14const_iteratormiERKS2_(ptr noundef nonnull align 8 dereferenceable(16) %this, ptr noundef nonnull align 8 dereferenceable(16) %rhs) #0 comdat align 2 {
entry:
  %retval = alloca i64, align 8
  %this.addr = alloca ptr, align 8
  %rhs.addr = alloca ptr, align 8
  store ptr %this, ptr %this.addr, align 8
  store ptr %rhs, ptr %rhs.addr, align 8
  %this1 = load ptr, ptr %this.addr, align 8
  %charPtr_ = getelementptr inbounds %"class.hermes::vm::StringView::const_iterator", ptr %this1, i32 0, i32 0
  %0 = load ptr, ptr %charPtr_, align 8
  %tobool = icmp ne ptr %0, null
  br i1 %tobool, label %if.then, label %if.end

if.then:                                          ; preds = %entry
  %charPtr_2 = getelementptr inbounds %"class.hermes::vm::StringView::const_iterator", ptr %this1, i32 0, i32 0
  %1 = load ptr, ptr %charPtr_2, align 8
  %2 = load ptr, ptr %rhs.addr, align 8
  %charPtr_3 = getelementptr inbounds %"class.hermes::vm::StringView::const_iterator", ptr %2, i32 0, i32 0
  %3 = load ptr, ptr %charPtr_3, align 8
  %sub.ptr.lhs.cast = ptrtoint ptr %1 to i64
  %sub.ptr.rhs.cast = ptrtoint ptr %3 to i64
  %sub.ptr.sub = sub i64 %sub.ptr.lhs.cast, %sub.ptr.rhs.cast
  store i64 %sub.ptr.sub, ptr %retval, align 8
  br label %return

if.end:                                           ; preds = %entry
  %char16Ptr_ = getelementptr inbounds %"class.hermes::vm::StringView::const_iterator", ptr %this1, i32 0, i32 1
  %4 = load ptr, ptr %char16Ptr_, align 8
  %5 = load ptr, ptr %rhs.addr, align 8
  %char16Ptr_4 = getelementptr inbounds %"class.hermes::vm::StringView::const_iterator", ptr %5, i32 0, i32 1
  %6 = load ptr, ptr %char16Ptr_4, align 8
  %sub.ptr.lhs.cast5 = ptrtoint ptr %4 to i64
  %sub.ptr.rhs.cast6 = ptrtoint ptr %6 to i64
  %sub.ptr.sub7 = sub i64 %sub.ptr.lhs.cast5, %sub.ptr.rhs.cast6
  %sub.ptr.div = sdiv exact i64 %sub.ptr.sub7, 2
  store i64 %sub.ptr.div, ptr %retval, align 8
  br label %return

return:                                           ; preds = %if.end, %if.then
  %7 = load i64, ptr %retval, align 8
  ret i64 %7
}

; Function Attrs: mustprogress nounwind uwtable
define linkonce_odr hidden void @_ZN6hermes2vm10StringView14const_iteratorC2EPKcPKDs(ptr noundef nonnull align 8 dereferenceable(16) %this, ptr noundef %charPtr, ptr noundef %char16Ptr) unnamed_addr #0 comdat align 2 {
entry:
  %this.addr = alloca ptr, align 8
  %charPtr.addr = alloca ptr, align 8
  %char16Ptr.addr = alloca ptr, align 8
  store ptr %this, ptr %this.addr, align 8
  store ptr %charPtr, ptr %charPtr.addr, align 8
  store ptr %char16Ptr, ptr %char16Ptr.addr, align 8
  %this1 = load ptr, ptr %this.addr, align 8
  %charPtr_ = getelementptr inbounds %"class.hermes::vm::StringView::const_iterator", ptr %this1, i32 0, i32 0
  %0 = load ptr, ptr %charPtr.addr, align 8
  store ptr %0, ptr %charPtr_, align 8
  %char16Ptr_ = getelementptr inbounds %"class.hermes::vm::StringView::const_iterator", ptr %this1, i32 0, i32 1
  %1 = load ptr, ptr %char16Ptr.addr, align 8
  store ptr %1, ptr %char16Ptr_, align 8
  ret void
}

; Function Attrs: mustprogress nounwind uwtable
define linkonce_odr hidden noundef nonnull align 8 dereferenceable(16) ptr @_ZN6hermes2vm10StringView14const_iteratorpLEl(ptr noundef nonnull align 8 dereferenceable(16) %this, i64 noundef %rhs) #0 comdat align 2 {
entry:
  %this.addr = alloca ptr, align 8
  %rhs.addr = alloca i64, align 8
  store ptr %this, ptr %this.addr, align 8
  store i64 %rhs, ptr %rhs.addr, align 8
  %this1 = load ptr, ptr %this.addr, align 8
  %charPtr_ = getelementptr inbounds %"class.hermes::vm::StringView::const_iterator", ptr %this1, i32 0, i32 0
  %0 = load ptr, ptr %charPtr_, align 8
  %tobool = icmp ne ptr %0, null
  br i1 %tobool, label %if.then, label %if.else

if.then:                                          ; preds = %entry
  %1 = load i64, ptr %rhs.addr, align 8
  %charPtr_2 = getelementptr inbounds %"class.hermes::vm::StringView::const_iterator", ptr %this1, i32 0, i32 0
  %2 = load ptr, ptr %charPtr_2, align 8
  %add.ptr = getelementptr inbounds i8, ptr %2, i64 %1
  store ptr %add.ptr, ptr %charPtr_2, align 8
  br label %if.end

if.else:                                          ; preds = %entry
  %3 = load i64, ptr %rhs.addr, align 8
  %char16Ptr_ = getelementptr inbounds %"class.hermes::vm::StringView::const_iterator", ptr %this1, i32 0, i32 1
  %4 = load ptr, ptr %char16Ptr_, align 8
  %add.ptr3 = getelementptr inbounds i16, ptr %4, i64 %3
  store ptr %add.ptr3, ptr %char16Ptr_, align 8
  br label %if.end

if.end:                                           ; preds = %if.else, %if.then
  ret ptr %this1
}

; Function Attrs: mustprogress nounwind uwtable
define linkonce_odr hidden { ptr, i64 } @_ZNK6hermes2vm10StringView5sliceENS1_14const_iteratorES2_(ptr noundef nonnull align 8 dereferenceable(16) %this, ptr %first.coerce0, ptr %first.coerce1, ptr %last.coerce0, ptr %last.coerce1) #0 comdat align 2 {
entry:
  %retval = alloca %"class.hermes::vm::StringView", align 8
  %first = alloca %"class.hermes::vm::StringView::const_iterator", align 8
  %last = alloca %"class.hermes::vm::StringView::const_iterator", align 8
  %this.addr = alloca ptr, align 8
  %ref.tmp = alloca %"class.hermes::vm::StringView::const_iterator", align 8
  %0 = getelementptr inbounds { ptr, ptr }, ptr %first, i32 0, i32 0
  store ptr %first.coerce0, ptr %0, align 8
  %1 = getelementptr inbounds { ptr, ptr }, ptr %first, i32 0, i32 1
  store ptr %first.coerce1, ptr %1, align 8
  %2 = getelementptr inbounds { ptr, ptr }, ptr %last, i32 0, i32 0
  store ptr %last.coerce0, ptr %2, align 8
  %3 = getelementptr inbounds { ptr, ptr }, ptr %last, i32 0, i32 1
  store ptr %last.coerce1, ptr %3, align 8
  store ptr %this, ptr %this.addr, align 8
  %this1 = load ptr, ptr %this.addr, align 8
  %call = call { ptr, ptr } @_ZNK6hermes2vm10StringView5beginEv(ptr noundef nonnull align 8 dereferenceable(16) %this1)
  %4 = getelementptr inbounds { ptr, ptr }, ptr %ref.tmp, i32 0, i32 0
  %5 = extractvalue { ptr, ptr } %call, 0
  store ptr %5, ptr %4, align 8
  %6 = getelementptr inbounds { ptr, ptr }, ptr %ref.tmp, i32 0, i32 1
  %7 = extractvalue { ptr, ptr } %call, 1
  store ptr %7, ptr %6, align 8
  %call2 = call noundef i64 @_ZNK6hermes2vm10StringView14const_iteratormiERKS2_(ptr noundef nonnull align 8 dereferenceable(16) %first, ptr noundef nonnull align 8 dereferenceable(16) %ref.tmp)
  %conv = trunc i64 %call2 to i32
  %call3 = call noundef i64 @_ZNK6hermes2vm10StringView14const_iteratormiERKS2_(ptr noundef nonnull align 8 dereferenceable(16) %last, ptr noundef nonnull align 8 dereferenceable(16) %first)
  %conv4 = trunc i64 %call3 to i32
  %call5 = call { ptr, i64 } @_ZNK6hermes2vm10StringView5sliceEjj(ptr noundef nonnull align 8 dereferenceable(16) %this1, i32 noundef %conv, i32 noundef %conv4)
  %8 = getelementptr inbounds { ptr, i64 }, ptr %retval, i32 0, i32 0
  %9 = extractvalue { ptr, i64 } %call5, 0
  store ptr %9, ptr %8, align 8
  %10 = getelementptr inbounds { ptr, i64 }, ptr %retval, i32 0, i32 1
  %11 = extractvalue { ptr, i64 } %call5, 1
  store i64 %11, ptr %10, align 8
  %12 = load { ptr, i64 }, ptr %retval, align 8
  ret { ptr, i64 } %12
}

; Function Attrs: mustprogress nounwind uwtable
define linkonce_odr hidden noundef zeroext i1 @_ZNK6hermes2vm10StringView14const_iteratorgtERKS2_(ptr noundef nonnull align 8 dereferenceable(16) %this, ptr noundef nonnull align 8 dereferenceable(16) %rhs) #0 comdat align 2 {
entry:
  %retval = alloca i1, align 1
  %this.addr = alloca ptr, align 8
  %rhs.addr = alloca ptr, align 8
  store ptr %this, ptr %this.addr, align 8
  store ptr %rhs, ptr %rhs.addr, align 8
  %this1 = load ptr, ptr %this.addr, align 8
  %charPtr_ = getelementptr inbounds %"class.hermes::vm::StringView::const_iterator", ptr %this1, i32 0, i32 0
  %0 = load ptr, ptr %charPtr_, align 8
  %tobool = icmp ne ptr %0, null
  br i1 %tobool, label %if.then, label %if.end

if.then:                                          ; preds = %entry
  %charPtr_2 = getelementptr inbounds %"class.hermes::vm::StringView::const_iterator", ptr %this1, i32 0, i32 0
  %1 = load ptr, ptr %charPtr_2, align 8
  %2 = load ptr, ptr %rhs.addr, align 8
  %charPtr_3 = getelementptr inbounds %"class.hermes::vm::StringView::const_iterator", ptr %2, i32 0, i32 0
  %3 = load ptr, ptr %charPtr_3, align 8
  %cmp = icmp ugt ptr %1, %3
  store i1 %cmp, ptr %retval, align 1
  br label %return

if.end:                                           ; preds = %entry
  %char16Ptr_ = getelementptr inbounds %"class.hermes::vm::StringView::const_iterator", ptr %this1, i32 0, i32 1
  %4 = load ptr, ptr %char16Ptr_, align 8
  %5 = load ptr, ptr %rhs.addr, align 8
  %char16Ptr_4 = getelementptr inbounds %"class.hermes::vm::StringView::const_iterator", ptr %5, i32 0, i32 1
  %6 = load ptr, ptr %char16Ptr_4, align 8
  %cmp5 = icmp ugt ptr %4, %6
  store i1 %cmp5, ptr %retval, align 1
  br label %return

return:                                           ; preds = %if.end, %if.then
  %7 = load i1, ptr %retval, align 1
  ret i1 %7
}

; Function Attrs: mustprogress nounwind uwtable
define linkonce_odr hidden { ptr, ptr } @_ZNK6hermes2vm10StringView14const_iteratorplEl(ptr noundef nonnull align 8 dereferenceable(16) %this, i64 noundef %rhs) #0 comdat align 2 {
entry:
  %retval = alloca %"class.hermes::vm::StringView::const_iterator", align 8
  %this.addr = alloca ptr, align 8
  %rhs.addr = alloca i64, align 8
  store ptr %this, ptr %this.addr, align 8
  store i64 %rhs, ptr %rhs.addr, align 8
  %this1 = load ptr, ptr %this.addr, align 8
  %charPtr_ = getelementptr inbounds %"class.hermes::vm::StringView::const_iterator", ptr %this1, i32 0, i32 0
  %0 = load ptr, ptr %charPtr_, align 8
  %tobool = icmp ne ptr %0, null
  br i1 %tobool, label %if.then, label %if.end

if.then:                                          ; preds = %entry
  %charPtr_2 = getelementptr inbounds %"class.hermes::vm::StringView::const_iterator", ptr %this1, i32 0, i32 0
  %1 = load ptr, ptr %charPtr_2, align 8
  %2 = load i64, ptr %rhs.addr, align 8
  %add.ptr = getelementptr inbounds i8, ptr %1, i64 %2
  %char16Ptr_ = getelementptr inbounds %"class.hermes::vm::StringView::const_iterator", ptr %this1, i32 0, i32 1
  %3 = load ptr, ptr %char16Ptr_, align 8
  call void @_ZN6hermes2vm10StringView14const_iteratorC2EPKcPKDs(ptr noundef nonnull align 8 dereferenceable(16) %retval, ptr noundef %add.ptr, ptr noundef %3)
  br label %return

if.end:                                           ; preds = %entry
  %charPtr_3 = getelementptr inbounds %"class.hermes::vm::StringView::const_iterator", ptr %this1, i32 0, i32 0
  %4 = load ptr, ptr %charPtr_3, align 8
  %char16Ptr_4 = getelementptr inbounds %"class.hermes::vm::StringView::const_iterator", ptr %this1, i32 0, i32 1
  %5 = load ptr, ptr %char16Ptr_4, align 8
  %6 = load i64, ptr %rhs.addr, align 8
  %add.ptr5 = getelementptr inbounds i16, ptr %5, i64 %6
  call void @_ZN6hermes2vm10StringView14const_iteratorC2EPKcPKDs(ptr noundef nonnull align 8 dereferenceable(16) %retval, ptr noundef %4, ptr noundef %add.ptr5)
  br label %return

return:                                           ; preds = %if.end, %if.then
  %7 = load { ptr, ptr }, ptr %retval, align 8
  ret { ptr, ptr } %7
}

; Function Attrs: mustprogress nounwind uwtable
define internal noundef zeroext i1 @"_ZZN6hermes2vmL11parseESDateENS0_10StringViewEENK3$_0clEi"(ptr noundef nonnull align 8 dereferenceable(24) %this, i32 noundef %len) #0 align 2 {
entry:
  %retval = alloca i1, align 1
  %this.addr = alloca ptr, align 8
  %len.addr = alloca i32, align 4
  %ref.tmp = alloca %"class.hermes::vm::StringView::const_iterator", align 8
  %ref.tmp2 = alloca %"class.hermes::vm::StringView::const_iterator", align 8
  %ref.tmp5 = alloca %"class.hermes::vm::StringView", align 8
  %agg.tmp = alloca %"class.hermes::vm::StringView::const_iterator", align 8
  %agg.tmp6 = alloca %"class.hermes::vm::StringView::const_iterator", align 8
  store ptr %this, ptr %this.addr, align 8
  store i32 %len, ptr %len.addr, align 4
  %this1 = load ptr, ptr %this.addr, align 8
  %0 = getelementptr inbounds %class.anon.75, ptr %this1, i32 0, i32 2
  %1 = load ptr, ptr %0, align 8
  %2 = load i32, ptr %len.addr, align 4
  %conv = sext i32 %2 to i64
  %call = call { ptr, ptr } @_ZNK6hermes2vm10StringView14const_iteratorplEl(ptr noundef nonnull align 8 dereferenceable(16) %1, i64 noundef %conv)
  %3 = getelementptr inbounds { ptr, ptr }, ptr %ref.tmp, i32 0, i32 0
  %4 = extractvalue { ptr, ptr } %call, 0
  store ptr %4, ptr %3, align 8
  %5 = getelementptr inbounds { ptr, ptr }, ptr %ref.tmp, i32 0, i32 1
  %6 = extractvalue { ptr, ptr } %call, 1
  store ptr %6, ptr %5, align 8
  %7 = getelementptr inbounds %class.anon.75, ptr %this1, i32 0, i32 0
  %8 = load ptr, ptr %7, align 8
  %call3 = call { ptr, ptr } @_ZNK6hermes2vm10StringView3endEv(ptr noundef nonnull align 8 dereferenceable(16) %8)
  %9 = getelementptr inbounds { ptr, ptr }, ptr %ref.tmp2, i32 0, i32 0
  %10 = extractvalue { ptr, ptr } %call3, 0
  store ptr %10, ptr %9, align 8
  %11 = getelementptr inbounds { ptr, ptr }, ptr %ref.tmp2, i32 0, i32 1
  %12 = extractvalue { ptr, ptr } %call3, 1
  store ptr %12, ptr %11, align 8
  %call4 = call noundef zeroext i1 @_ZNK6hermes2vm10StringView14const_iteratorgtERKS2_(ptr noundef nonnull align 8 dereferenceable(16) %ref.tmp, ptr noundef nonnull align 8 dereferenceable(16) %ref.tmp2)
  br i1 %call4, label %if.then, label %if.end

if.then:                                          ; preds = %entry
  store i1 false, ptr %retval, align 1
  br label %return

if.end:                                           ; preds = %entry
  %13 = getelementptr inbounds %class.anon.75, ptr %this1, i32 0, i32 0
  %14 = load ptr, ptr %13, align 8
  %15 = getelementptr inbounds %class.anon.75, ptr %this1, i32 0, i32 2
  %16 = load ptr, ptr %15, align 8
  call void @llvm.memcpy.p0.p0.i64(ptr align 8 %agg.tmp, ptr align 8 %16, i64 16, i1 false)
  %17 = getelementptr inbounds %class.anon.75, ptr %this1, i32 0, i32 2
  %18 = load ptr, ptr %17, align 8
  %19 = load i32, ptr %len.addr, align 4
  %conv7 = sext i32 %19 to i64
  %call8 = call { ptr, ptr } @_ZNK6hermes2vm10StringView14const_iteratorplEl(ptr noundef nonnull align 8 dereferenceable(16) %18, i64 noundef %conv7)
  %20 = getelementptr inbounds { ptr, ptr }, ptr %agg.tmp6, i32 0, i32 0
  %21 = extractvalue { ptr, ptr } %call8, 0
  store ptr %21, ptr %20, align 8
  %22 = getelementptr inbounds { ptr, ptr }, ptr %agg.tmp6, i32 0, i32 1
  %23 = extractvalue { ptr, ptr } %call8, 1
  store ptr %23, ptr %22, align 8
  %24 = getelementptr inbounds { ptr, ptr }, ptr %agg.tmp, i32 0, i32 0
  %25 = load ptr, ptr %24, align 8
  %26 = getelementptr inbounds { ptr, ptr }, ptr %agg.tmp, i32 0, i32 1
  %27 = load ptr, ptr %26, align 8
  %28 = getelementptr inbounds { ptr, ptr }, ptr %agg.tmp6, i32 0, i32 0
  %29 = load ptr, ptr %28, align 8
  %30 = getelementptr inbounds { ptr, ptr }, ptr %agg.tmp6, i32 0, i32 1
  %31 = load ptr, ptr %30, align 8
  %call9 = call { ptr, i64 } @_ZNK6hermes2vm10StringView5sliceENS1_14const_iteratorES2_(ptr noundef nonnull align 8 dereferenceable(16) %14, ptr %25, ptr %27, ptr %29, ptr %31)
  %32 = getelementptr inbounds { ptr, i64 }, ptr %ref.tmp5, i32 0, i32 0
  %33 = extractvalue { ptr, i64 } %call9, 0
  store ptr %33, ptr %32, align 8
  %34 = getelementptr inbounds { ptr, i64 }, ptr %ref.tmp5, i32 0, i32 1
  %35 = extractvalue { ptr, i64 } %call9, 1
  store i64 %35, ptr %34, align 8
  %36 = getelementptr inbounds %class.anon.75, ptr %this1, i32 0, i32 1
  %37 = load ptr, ptr %36, align 8
  call void @llvm.memcpy.p0.p0.i64(ptr align 8 %37, ptr align 8 %ref.tmp5, i64 16, i1 false)
  %38 = load i32, ptr %len.addr, align 4
  %conv10 = sext i32 %38 to i64
  %39 = getelementptr inbounds %class.anon.75, ptr %this1, i32 0, i32 2
  %40 = load ptr, ptr %39, align 8
  %call11 = call noundef nonnull align 8 dereferenceable(16) ptr @_ZN6hermes2vm10StringView14const_iteratorpLEl(ptr noundef nonnull align 8 dereferenceable(16) %40, i64 noundef %conv10)
  store i1 true, ptr %retval, align 1
  br label %return

return:                                           ; preds = %if.end, %if.then
  %41 = load i1, ptr %retval, align 1
  ret i1 %41
}