; Function Attrs: mustprogress nounwind uwtable
define internal fastcc noundef zeroext i1 @"_ZZN6hermes2vmL11parseESDateENS0_10StringViewEENK3$_0clEi"(ptr nocapture noundef nonnull readonly align 8 dereferenceable(24) %this) unnamed_addr #0 align 2 {
entry:
  %0 = getelementptr inbounds i8, ptr %this, i64 16
  %1 = load ptr, ptr %0, align 8
  %2 = load ptr, ptr %1, align 8
  %tobool.not.i = icmp eq ptr %2, null
  %char16Ptr_4.i = getelementptr inbounds i8, ptr %1, i64 8
  %3 = load ptr, ptr %char16Ptr_4.i, align 8
  %add.ptr.i = getelementptr inbounds i8, ptr %2, i64 3
  %retval.sroa.3.0.idx.i = select i1 %tobool.not.i, i64 3, i64 0
  %retval.sroa.3.0.i = getelementptr inbounds i16, ptr %3, i64 %retval.sroa.3.0.idx.i
  %4 = load ptr, ptr %this, align 8
  %call3 = tail call { ptr, ptr } @_ZNK6hermes2vm10StringView3endEv(ptr noundef nonnull align 8 dereferenceable(16) %4)
  %5 = extractvalue { ptr, ptr } %call3, 0
  %6 = extractvalue { ptr, ptr } %call3, 1
  %.sink.i = select i1 %tobool.not.i, ptr %retval.sroa.3.0.i, ptr %add.ptr.i
  %.sroa.speculated = select i1 %tobool.not.i, ptr %6, ptr %5
  %cmp5.i = icmp ule ptr %.sink.i, %.sroa.speculated
  br i1 %cmp5.i, label %if.end, label %return

if.end:                                           ; preds = %entry
  %7 = load ptr, ptr %this, align 8
  %8 = load ptr, ptr %0, align 8
  %agg.tmp.sroa.0.0.copyload = load ptr, ptr %8, align 8
  %agg.tmp.sroa.2.0..sroa_idx = getelementptr inbounds i8, ptr %8, i64 8
  %agg.tmp.sroa.2.0.copyload = load ptr, ptr %agg.tmp.sroa.2.0..sroa_idx, align 8
  %tobool.not.i4 = icmp eq ptr %agg.tmp.sroa.0.0.copyload, null
  %add.ptr.i6 = getelementptr inbounds i8, ptr %agg.tmp.sroa.0.0.copyload, i64 3
  %retval.sroa.0.0.i9 = select i1 %tobool.not.i4, ptr null, ptr %add.ptr.i6
  %call.i = tail call { ptr, ptr } @_ZNK6hermes2vm10StringView5beginEv(ptr noundef nonnull align 8 dereferenceable(16) %7)
  %9 = extractvalue { ptr, ptr } %call.i, 0
  %10 = extractvalue { ptr, ptr } %call.i, 1
  %sub.ptr.lhs.cast.i.i = ptrtoint ptr %agg.tmp.sroa.0.0.copyload to i64
  %sub.ptr.rhs.cast.i.i = ptrtoint ptr %9 to i64
  %sub.ptr.sub.i.i = sub i64 %sub.ptr.lhs.cast.i.i, %sub.ptr.rhs.cast.i.i
  %sub.ptr.lhs.cast5.i.i = ptrtoint ptr %agg.tmp.sroa.2.0.copyload to i64
  %sub.ptr.rhs.cast6.i.i = ptrtoint ptr %10 to i64
  %sub.ptr.sub7.i.i = sub i64 %sub.ptr.lhs.cast5.i.i, %sub.ptr.rhs.cast6.i.i
  %sub.ptr.div.i.i = lshr exact i64 %sub.ptr.sub7.i.i, 1
  %retval.0.i.i = select i1 %tobool.not.i4, i64 %sub.ptr.div.i.i, i64 %sub.ptr.sub.i.i
  %sub.ptr.lhs.cast.i3.i = ptrtoint ptr %retval.sroa.0.0.i9 to i64
  %sub.ptr.sub.i5.i = sub i64 %sub.ptr.lhs.cast.i3.i, %sub.ptr.lhs.cast.i.i
  %11 = shl i64 %sub.ptr.sub.i5.i, 32
  %retval.sroa.0.0.copyload.i.i = load ptr, ptr %7, align 8
  %retval.sroa.2.0.this.addr.0.this1.sroa_idx.i.i = getelementptr inbounds i8, ptr %7, i64 8
  %retval.sroa.2.0.copyload.i.i = load i64, ptr %retval.sroa.2.0.this.addr.0.this1.sroa_idx.i.i, align 8
  %add.i.i = add i64 %retval.0.i.i, %retval.sroa.2.0.copyload.i.i
  %bf.value.i.i = and i64 %add.i.i, 1073741823
  %bf.clear3.i.i = and i64 %retval.sroa.2.0.copyload.i.i, 3221225472
  %retval.sroa.2.12.insert.ext.i.i = select i1 %tobool.not.i4, i64 12884901888, i64 %11
  %bf.set.i.i = or disjoint i64 %retval.sroa.2.12.insert.ext.i.i, %bf.clear3.i.i
  %retval.sroa.2.12.insert.insert.i.i = or disjoint i64 %bf.set.i.i, %bf.value.i.i
  %12 = getelementptr inbounds i8, ptr %this, i64 8
  %13 = load ptr, ptr %12, align 8
  store ptr %retval.sroa.0.0.copyload.i.i, ptr %13, align 8
  %ref.tmp5.sroa.2.0..sroa_idx = getelementptr inbounds i8, ptr %13, i64 8
  store i64 %retval.sroa.2.12.insert.insert.i.i, ptr %ref.tmp5.sroa.2.0..sroa_idx, align 8
  %14 = load ptr, ptr %0, align 8
  %15 = load ptr, ptr %14, align 8
  %tobool.not.i12 = icmp eq ptr %15, null
  br i1 %tobool.not.i12, label %if.else.i, label %if.then.i

if.then.i:                                        ; preds = %if.end
  %add.ptr.i13 = getelementptr inbounds i8, ptr %15, i64 3
  store ptr %add.ptr.i13, ptr %14, align 8
  br label %return

if.else.i:                                        ; preds = %if.end
  %char16Ptr_.i14 = getelementptr inbounds i8, ptr %14, i64 8
  %16 = load ptr, ptr %char16Ptr_.i14, align 8
  %add.ptr3.i = getelementptr inbounds i8, ptr %16, i64 6
  store ptr %add.ptr3.i, ptr %char16Ptr_.i14, align 8
  br label %return

return:                                           ; preds = %if.else.i, %if.then.i, %entry
  ret i1 %cmp5.i
}